target datalayout = "e-m:e-p270:32:32-p271:32:32-p272:64:64-i64:64-i128:128-f80:128-n8:16:32:64-S128"
target triple = "x86_64-unknown-linux-gnu"

%"class.icu_75::UObject" = type { ptr }
%"class.icu_75::MessagePattern" = type <{ %"class.icu_75::UObject", i32, [4 x i8], %"class.icu_75::UnicodeString", ptr, ptr, i32, [4 x i8], ptr, ptr, i32, i8, i8, i8, i8 }>
%"class.icu_75::UnicodeString" = type { %"class.icu_75::Replaceable", %"union.icu_75::UnicodeString::StackBufferOrFields" }
%"class.icu_75::Replaceable" = type { %"class.icu_75::UObject" }
%"union.icu_75::UnicodeString::StackBufferOrFields" = type { %struct.anon.0, [32 x i8] }
%struct.anon.0 = type { i16, i32, i32, ptr }
%"class.icu_75::MessagePattern::Part" = type { i32, i32, i16, i16, i32 }
%"class.icu_75::ParsePosition" = type { %"class.icu_75::UObject", i32, i32 }

; Function Attrs: mustprogress nounwind uwtable
define linkonce_odr noundef i32 @_ZNK6icu_7513UnicodeString14getShortLengthEv(ptr noundef nonnull align 8 dereferenceable(64) %this) #0 comdat align 2 {
entry:
  %this.addr = alloca ptr, align 8
  store ptr %this, ptr %this.addr, align 8
  %this1 = load ptr, ptr %this.addr, align 8
  %fUnion = getelementptr inbounds %"class.icu_75::UnicodeString", ptr %this1, i32 0, i32 1
  %fLengthAndFlags = getelementptr inbounds %struct.anon.0, ptr %fUnion, i32 0, i32 0
  %0 = load i16, ptr %fLengthAndFlags, align 8
  %conv = sext i16 %0 to i32
  %shr = ashr i32 %conv, 5
  ret i32 %shr
}

; Function Attrs: mustprogress nounwind uwtable
define linkonce_odr noundef signext i8 @_ZNK6icu_7513UnicodeString14hasShortLengthEv(ptr noundef nonnull align 8 dereferenceable(64) %this) #0 comdat align 2 {
entry:
  %this.addr = alloca ptr, align 8
  store ptr %this, ptr %this.addr, align 8
  %this1 = load ptr, ptr %this.addr, align 8
  %fUnion = getelementptr inbounds %"class.icu_75::UnicodeString", ptr %this1, i32 0, i32 1
  %fLengthAndFlags = getelementptr inbounds %struct.anon.0, ptr %fUnion, i32 0, i32 0
  %0 = load i16, ptr %fLengthAndFlags, align 8
  %conv = sext i16 %0 to i32
  %cmp = icmp sge i32 %conv, 0
  %conv2 = zext i1 %cmp to i8
  ret i8 %conv2
}

; Function Attrs: mustprogress nounwind uwtable
define linkonce_odr void @_ZN6icu_7513ParsePosition8setIndexEi(ptr noundef nonnull align 8 dereferenceable(16) %this, i32 noundef %offset) #0 comdat align 2 {
entry:
  %this.addr = alloca ptr, align 8
  %offset.addr = alloca i32, align 4
  store ptr %this, ptr %this.addr, align 8
  store i32 %offset, ptr %offset.addr, align 4
  %this1 = load ptr, ptr %this.addr, align 8
  %0 = load i32, ptr %offset.addr, align 4
  %index = getelementptr inbounds %"class.icu_75::ParsePosition", ptr %this1, i32 0, i32 1
  store i32 %0, ptr %index, align 8
  ret void
}

; Function Attrs: mustprogress nounwind uwtable
define linkonce_odr void @_ZN6icu_7513ParsePosition13setErrorIndexEi(ptr noundef nonnull align 8 dereferenceable(16) %this, i32 noundef %ei) #0 comdat align 2 {
entry:
  %this.addr = alloca ptr, align 8
  %ei.addr = alloca i32, align 4
  store ptr %this, ptr %this.addr, align 8
  store i32 %ei, ptr %ei.addr, align 4
  %this1 = load ptr, ptr %this.addr, align 8
  %0 = load i32, ptr %ei.addr, align 4
  %errorIndex = getelementptr inbounds %"class.icu_75::ParsePosition", ptr %this1, i32 0, i32 2
  store i32 %0, ptr %errorIndex, align 4
  ret void
}

; Function Attrs: mustprogress uwtable
define linkonce_odr noundef i32 @_ZNK6icu_7513UnicodeString6lengthEv(ptr noundef nonnull align 8 dereferenceable(64) %this) #1 comdat align 2 {
entry:
  %this.addr = alloca ptr, align 8
  store ptr %this, ptr %this.addr, align 8
  %this1 = load ptr, ptr %this.addr, align 8
  %call = call noundef signext i8 @_ZNK6icu_7513UnicodeString14hasShortLengthEv(ptr noundef nonnull align 8 dereferenceable(64) %this1)
  %tobool = icmp ne i8 %call, 0
  br i1 %tobool, label %cond.true, label %cond.false

cond.true:                                        ; preds = %entry
  %call2 = call noundef i32 @_ZNK6icu_7513UnicodeString14getShortLengthEv(ptr noundef nonnull align 8 dereferenceable(64) %this1)
  br label %cond.end

cond.false:                                       ; preds = %entry
  %fUnion = getelementptr inbounds %"class.icu_75::UnicodeString", ptr %this1, i32 0, i32 1
  %fLength = getelementptr inbounds %struct.anon.0, ptr %fUnion, i32 0, i32 1
  %0 = load i32, ptr %fLength, align 4
  br label %cond.end

cond.end:                                         ; preds = %cond.false, %cond.true
  %cond = phi i32 [ %call2, %cond.true ], [ %0, %cond.false ]
  ret i32 %cond
}

; Function Attrs: mustprogress nounwind uwtable
define linkonce_odr noundef i32 @_ZNK6icu_7514MessagePattern17getLimitPartIndexEi(ptr noundef nonnull align 8 dereferenceable(127) %this, i32 noundef %start) #0 comdat align 2 {
entry:
  %retval = alloca i32, align 4
  %this.addr = alloca ptr, align 8
  %start.addr = alloca i32, align 4
  %limit = alloca i32, align 4
  store ptr %this, ptr %this.addr, align 8
  store i32 %start, ptr %start.addr, align 4
  %this1 = load ptr, ptr %this.addr, align 8
  %0 = load i32, ptr %start.addr, align 4
  %call = call noundef nonnull align 4 dereferenceable(16) ptr @_ZNK6icu_7514MessagePattern7getPartEi(ptr noundef nonnull align 8 dereferenceable(127) %this1, i32 noundef %0)
  %limitPartIndex = getelementptr inbounds %"class.icu_75::MessagePattern::Part", ptr %call, i32 0, i32 4
  %1 = load i32, ptr %limitPartIndex, align 4
  store i32 %1, ptr %limit, align 4
  %2 = load i32, ptr %limit, align 4
  %3 = load i32, ptr %start.addr, align 4
  %cmp = icmp slt i32 %2, %3
  br i1 %cmp, label %if.then, label %if.end

if.then:                                          ; preds = %entry
  %4 = load i32, ptr %start.addr, align 4
  store i32 %4, ptr %retval, align 4
  br label %return

if.end:                                           ; preds = %entry
  %5 = load i32, ptr %limit, align 4
  store i32 %5, ptr %retval, align 4
  br label %return

return:                                           ; preds = %if.end, %if.then
  %6 = load i32, ptr %retval, align 4
  ret i32 %6
}

; Function Attrs: mustprogress nounwind uwtable
define linkonce_odr noundef nonnull align 4 dereferenceable(16) ptr @_ZNK6icu_7514MessagePattern7getPartEi(ptr noundef nonnull align 8 dereferenceable(127) %this, i32 noundef %i) #0 comdat align 2 {
entry:
  %this.addr = alloca ptr, align 8
  %i.addr = alloca i32, align 4
  store ptr %this, ptr %this.addr, align 8
  store i32 %i, ptr %i.addr, align 4
  %this1 = load ptr, ptr %this.addr, align 8
  %parts = getelementptr inbounds %"class.icu_75::MessagePattern", ptr %this1, i32 0, i32 5
  %0 = load ptr, ptr %parts, align 8
  %1 = load i32, ptr %i.addr, align 4
  %idxprom = sext i32 %1 to i64
  %arrayidx = getelementptr inbounds %"class.icu_75::MessagePattern::Part", ptr %0, i64 %idxprom
  ret ptr %arrayidx
}

; Function Attrs: mustprogress nounwind uwtable
define linkonce_odr noundef i32 @_ZNK6icu_7514MessagePattern11getPartTypeEi(ptr noundef nonnull align 8 dereferenceable(127) %this, i32 noundef %i) #0 comdat align 2 {
entry:
  %this.addr = alloca ptr, align 8
  %i.addr = alloca i32, align 4
  store ptr %this, ptr %this.addr, align 8
  store i32 %i, ptr %i.addr, align 4
  %this1 = load ptr, ptr %this.addr, align 8
  %0 = load i32, ptr %i.addr, align 4
  %call = call noundef nonnull align 4 dereferenceable(16) ptr @_ZNK6icu_7514MessagePattern7getPartEi(ptr noundef nonnull align 8 dereferenceable(127) %this1, i32 noundef %0)
  %type = getelementptr inbounds %"class.icu_75::MessagePattern::Part", ptr %call, i32 0, i32 0
  %1 = load i32, ptr %type, align 4
  ret i32 %1
}

; Function Attrs: mustprogress nounwind uwtable
define linkonce_odr noundef i32 @_ZNK6icu_7514MessagePattern10countPartsEv(ptr noundef nonnull align 8 dereferenceable(127) %this) #0 comdat align 2 {
entry:
  %this.addr = alloca ptr, align 8
  store ptr %this, ptr %this.addr, align 8
  %this1 = load ptr, ptr %this.addr, align 8
  %partsLength = getelementptr inbounds %"class.icu_75::MessagePattern", ptr %this1, i32 0, i32 6
  %0 = load i32, ptr %partsLength, align 8
  ret i32 %0
}

; Function Attrs: mustprogress nounwind uwtable
define linkonce_odr noundef i32 @_ZNK6icu_7513ParsePosition8getIndexEv(ptr noundef nonnull align 8 dereferenceable(16) %this) #0 comdat align 2 {
entry:
  %this.addr = alloca ptr, align 8
  store ptr %this, ptr %this.addr, align 8
  %this1 = load ptr, ptr %this.addr, align 8
  %index = getelementptr inbounds %"class.icu_75::ParsePosition", ptr %this1, i32 0, i32 1
  %0 = load i32, ptr %index, align 8
  ret i32 %0
}

; Function Attrs: mustprogress uwtable
define noundef double @_ZN6icu_7512ChoiceFormat13parseArgumentERKNS_14MessagePatternEiRKNS_13UnicodeStringERNS_13ParsePositionE(ptr noundef nonnull align 8 dereferenceable(127) %pattern, i32 noundef %partIndex, ptr noundef nonnull align 8 dereferenceable(64) %source, ptr noundef nonnull align 8 dereferenceable(16) %pos) #1 align 2 {
entry:
  %pattern.addr = alloca ptr, align 8
  %partIndex.addr = alloca i32, align 4
  %source.addr = alloca ptr, align 8
  %pos.addr = alloca ptr, align 8
  %start = alloca i32, align 4
  %furthest = alloca i32, align 4
  %bestNumber = alloca double, align 8
  %tempNumber = alloca double, align 8
  %count = alloca i32, align 4
  %msgLimit = alloca i32, align 4
  %len = alloca i32, align 4
  %newIndex = alloca i32, align 4
  store ptr %pattern, ptr %pattern.addr, align 8
  store i32 %partIndex, ptr %partIndex.addr, align 4
  store ptr %source, ptr %source.addr, align 8
  store ptr %pos, ptr %pos.addr, align 8
  %0 = load ptr, ptr %pos.addr, align 8
  %call = call noundef i32 @_ZNK6icu_7513ParsePosition8getIndexEv(ptr noundef nonnull align 8 dereferenceable(16) %0)
  store i32 %call, ptr %start, align 4
  %1 = load i32, ptr %start, align 4
  store i32 %1, ptr %furthest, align 4
  %call1 = call double @uprv_getNaN_75()
  store double %call1, ptr %bestNumber, align 8
  store double 0.000000e+00, ptr %tempNumber, align 8
  %2 = load ptr, ptr %pattern.addr, align 8
  %call2 = call noundef i32 @_ZNK6icu_7514MessagePattern10countPartsEv(ptr noundef nonnull align 8 dereferenceable(127) %2)
  store i32 %call2, ptr %count, align 4
  br label %while.cond

while.cond:                                       ; preds = %if.end17, %entry
  %3 = load i32, ptr %partIndex.addr, align 4
  %4 = load i32, ptr %count, align 4
  %cmp = icmp slt i32 %3, %4
  br i1 %cmp, label %land.rhs, label %land.end

land.rhs:                                         ; preds = %while.cond
  %5 = load ptr, ptr %pattern.addr, align 8
  %6 = load i32, ptr %partIndex.addr, align 4
  %call3 = call noundef i32 @_ZNK6icu_7514MessagePattern11getPartTypeEi(ptr noundef nonnull align 8 dereferenceable(127) %5, i32 noundef %6)
  %cmp4 = icmp ne i32 %call3, 6
  br label %land.end

land.end:                                         ; preds = %land.rhs, %while.cond
  %7 = phi i1 [ false, %while.cond ], [ %cmp4, %land.rhs ]
  br i1 %7, label %while.body, label %while.end

while.body:                                       ; preds = %land.end
  %8 = load ptr, ptr %pattern.addr, align 8
  %9 = load ptr, ptr %pattern.addr, align 8
  %10 = load i32, ptr %partIndex.addr, align 4
  %call5 = call noundef nonnull align 4 dereferenceable(16) ptr @_ZNK6icu_7514MessagePattern7getPartEi(ptr noundef nonnull align 8 dereferenceable(127) %9, i32 noundef %10)
  %call6 = call noundef double @_ZNK6icu_7514MessagePattern15getNumericValueERKNS0_4PartE(ptr noundef nonnull align 8 dereferenceable(127) %8, ptr noundef nonnull align 4 dereferenceable(16) %call5)
  store double %call6, ptr %tempNumber, align 8
  %11 = load i32, ptr %partIndex.addr, align 4
  %add = add nsw i32 %11, 2
  store i32 %add, ptr %partIndex.addr, align 4
  %12 = load ptr, ptr %pattern.addr, align 8
  %13 = load i32, ptr %partIndex.addr, align 4
  %call7 = call noundef i32 @_ZNK6icu_7514MessagePattern17getLimitPartIndexEi(ptr noundef nonnull align 8 dereferenceable(127) %12, i32 noundef %13)
  store i32 %call7, ptr %msgLimit, align 4
  %14 = load ptr, ptr %pattern.addr, align 8
  %15 = load i32, ptr %partIndex.addr, align 4
  %16 = load i32, ptr %msgLimit, align 4
  %17 = load ptr, ptr %source.addr, align 8
  %18 = load i32, ptr %start, align 4
  %call8 = call noundef i32 @_ZN6icu_7512ChoiceFormat25matchStringUntilLimitPartERKNS_14MessagePatternEiiRKNS_13UnicodeStringEi(ptr noundef nonnull align 8 dereferenceable(127) %14, i32 noundef %15, i32 noundef %16, ptr noundef nonnull align 8 dereferenceable(64) %17, i32 noundef %18)
  store i32 %call8, ptr %len, align 4
  %19 = load i32, ptr %len, align 4
  %cmp9 = icmp sge i32 %19, 0
  br i1 %cmp9, label %if.then, label %if.end17

if.then:                                          ; preds = %while.body
  %20 = load i32, ptr %start, align 4
  %21 = load i32, ptr %len, align 4
  %add10 = add nsw i32 %20, %21
  store i32 %add10, ptr %newIndex, align 4
  %22 = load i32, ptr %newIndex, align 4
  %23 = load i32, ptr %furthest, align 4
  %cmp11 = icmp sgt i32 %22, %23
  br i1 %cmp11, label %if.then12, label %if.end16

if.then12:                                        ; preds = %if.then
  %24 = load i32, ptr %newIndex, align 4
  store i32 %24, ptr %furthest, align 4
  %25 = load double, ptr %tempNumber, align 8
  store double %25, ptr %bestNumber, align 8
  %26 = load i32, ptr %furthest, align 4
  %27 = load ptr, ptr %source.addr, align 8
  %call13 = call noundef i32 @_ZNK6icu_7513UnicodeString6lengthEv(ptr noundef nonnull align 8 dereferenceable(64) %27)
  %cmp14 = icmp eq i32 %26, %call13
  br i1 %cmp14, label %if.then15, label %if.end

if.then15:                                        ; preds = %if.then12
  br label %while.end

if.end:                                           ; preds = %if.then12
  br label %if.end16

if.end16:                                         ; preds = %if.end, %if.then
  br label %if.end17

if.end17:                                         ; preds = %if.end16, %while.body
  %28 = load i32, ptr %msgLimit, align 4
  %add18 = add nsw i32 %28, 1
  store i32 %add18, ptr %partIndex.addr, align 4
  br label %while.cond, !llvm.loop !13

while.end:                                        ; preds = %if.then15, %land.end
  %29 = load i32, ptr %furthest, align 4
  %30 = load i32, ptr %start, align 4
  %cmp19 = icmp eq i32 %29, %30
  br i1 %cmp19, label %if.then20, label %if.else

if.then20:                                        ; preds = %while.end
  %31 = load ptr, ptr %pos.addr, align 8
  %32 = load i32, ptr %start, align 4
  call void @_ZN6icu_7513ParsePosition13setErrorIndexEi(ptr noundef nonnull align 8 dereferenceable(16) %31, i32 noundef %32)
  br label %if.end21

if.else:                                          ; preds = %while.end
  %33 = load ptr, ptr %pos.addr, align 8
  %34 = load i32, ptr %furthest, align 4
  call void @_ZN6icu_7513ParsePosition8setIndexEi(ptr noundef nonnull align 8 dereferenceable(16) %33, i32 noundef %34)
  br label %if.end21

if.end21:                                         ; preds = %if.else, %if.then20
  %35 = load double, ptr %bestNumber, align 8
  ret double %35
}