; Function Attrs: mustprogress uwtable
define noundef double @_ZN6icu_7512ChoiceFormat13parseArgumentERKNS_14MessagePatternEiRKNS_13UnicodeStringERNS_13ParsePositionE(ptr noundef nonnull align 8 dereferenceable(127) %pattern, i32 noundef %partIndex, ptr noundef nonnull align 8 dereferenceable(64) %source, ptr nocapture noundef nonnull align 8 dereferenceable(16) %pos) local_unnamed_addr #1 align 2 {
entry:
  %index.i = getelementptr inbounds i8, ptr %pos, i64 8
  %0 = load i32, ptr %index.i, align 8
  %call1 = tail call double @uprv_getNaN_75()
  %partsLength.i = getelementptr inbounds i8, ptr %pattern, i64 96
  %1 = load i32, ptr %partsLength.i, align 8
  %parts.i.i = getelementptr inbounds i8, ptr %pattern, i64 88
  %fUnion.i.i = getelementptr inbounds i8, ptr %source, i64 8
  %cmp27 = icmp sgt i32 %1, %partIndex
  br i1 %cmp27, label %land.rhs.lr.ph, label %if.then20

land.rhs.lr.ph:                                   ; preds = %entry
  %fLength.i = getelementptr inbounds i8, ptr %source, i64 12
  br label %land.rhs

land.rhs:                                         ; preds = %land.rhs.lr.ph, %if.end17
  %partIndex.addr.030 = phi i32 [ %partIndex, %land.rhs.lr.ph ], [ %add18, %if.end17 ]
  %furthest.029 = phi i32 [ %0, %land.rhs.lr.ph ], [ %furthest.1, %if.end17 ]
  %bestNumber.028 = phi double [ %call1, %land.rhs.lr.ph ], [ %bestNumber.1, %if.end17 ]
  %2 = load ptr, ptr %parts.i.i, align 8
  %idxprom.i.i = sext i32 %partIndex.addr.030 to i64
  %arrayidx.i.i = getelementptr inbounds %"class.icu_75::MessagePattern::Part", ptr %2, i64 %idxprom.i.i
  %3 = load i32, ptr %arrayidx.i.i, align 4
  %cmp4.not = icmp eq i32 %3, 6
  br i1 %cmp4.not, label %while.end, label %while.body

while.body:                                       ; preds = %land.rhs
  %call6 = tail call noundef double @_ZNK6icu_7514MessagePattern15getNumericValueERKNS0_4PartE(ptr noundef nonnull align 8 dereferenceable(127) %pattern, ptr noundef nonnull align 4 dereferenceable(16) %arrayidx.i.i)
  %add = add nsw i32 %partIndex.addr.030, 2
  %4 = load ptr, ptr %parts.i.i, align 8
  %idxprom.i.i25 = sext i32 %add to i64
  %limitPartIndex.i = getelementptr inbounds %"class.icu_75::MessagePattern::Part", ptr %4, i64 %idxprom.i.i25, i32 4
  %5 = load i32, ptr %limitPartIndex.i, align 4
  %start..i = tail call noundef i32 @llvm.smax.i32(i32 %5, i32 %add)
  %call8 = tail call noundef i32 @_ZN6icu_7512ChoiceFormat25matchStringUntilLimitPartERKNS_14MessagePatternEiiRKNS_13UnicodeStringEi(ptr noundef nonnull align 8 dereferenceable(127) %pattern, i32 noundef %add, i32 noundef %start..i, ptr noundef nonnull align 8 dereferenceable(64) %source, i32 noundef %0)
  %cmp9 = icmp sgt i32 %call8, -1
  br i1 %cmp9, label %if.then, label %if.end17

if.then:                                          ; preds = %while.body
  %add10 = add nsw i32 %call8, %0
  %cmp11 = icmp sgt i32 %add10, %furthest.029
  br i1 %cmp11, label %if.then12, label %if.end17

if.then12:                                        ; preds = %if.then
  %6 = load i16, ptr %fUnion.i.i, align 8
  %cmp.i.i = icmp slt i16 %6, 0
  %7 = ashr i16 %6, 5
  %shr.i.i = sext i16 %7 to i32
  %8 = load i32, ptr %fLength.i, align 4
  %cond.i = select i1 %cmp.i.i, i32 %8, i32 %shr.i.i
  %cmp14 = icmp eq i32 %add10, %cond.i
  br i1 %cmp14, label %while.end, label %if.end17

if.end17:                                         ; preds = %if.then, %if.then12, %while.body
  %bestNumber.1 = phi double [ %call6, %if.then12 ], [ %bestNumber.028, %if.then ], [ %bestNumber.028, %while.body ]
  %furthest.1 = phi i32 [ %add10, %if.then12 ], [ %furthest.029, %if.then ], [ %furthest.029, %while.body ]
  %add18 = add nsw i32 %start..i, 1
  %cmp = icmp slt i32 %add18, %1
  br i1 %cmp, label %land.rhs, label %while.end, !llvm.loop !13

while.end:                                        ; preds = %land.rhs, %if.then12, %if.end17
  %bestNumber.2 = phi double [ %bestNumber.028, %land.rhs ], [ %call6, %if.then12 ], [ %bestNumber.1, %if.end17 ]
  %furthest.2 = phi i32 [ %furthest.029, %land.rhs ], [ %add10, %if.then12 ], [ %furthest.1, %if.end17 ]
  %cmp19 = icmp eq i32 %furthest.2, %0
  br i1 %cmp19, label %if.then20, label %if.else

if.then20:                                        ; preds = %entry, %while.end
  %bestNumber.240 = phi double [ %bestNumber.2, %while.end ], [ %call1, %entry ]
  %errorIndex.i = getelementptr inbounds i8, ptr %pos, i64 12
  store i32 %0, ptr %errorIndex.i, align 4
  br label %if.end21

if.else:                                          ; preds = %while.end
  store i32 %furthest.2, ptr %index.i, align 8
  br label %if.end21

if.end21:                                         ; preds = %if.else, %if.then20
  %bestNumber.239 = phi double [ %bestNumber.2, %if.else ], [ %bestNumber.240, %if.then20 ]
  ret double %bestNumber.239
}